target datalayout = "e-m:e-p270:32:32-p271:32:32-p272:64:64-i64:64-i128:128-f80:128-n8:16:32:64-S128"
target triple = "x86_64-pc-linux-gnu"

@.str.4 = private unnamed_addr constant [27 x i8] c"size_t overflow: %lu * %lu\00", align 1

; Function Attrs: inlinehint nounwind uwtable
define internal i64 @st_mult(i64 noundef %0, i64 noundef %1) #7 {
  %3 = alloca i64, align 8
  %4 = alloca i64, align 8
  store i64 %0, ptr %3, align 8, !tbaa !21
  store i64 %1, ptr %4, align 8, !tbaa !21
  %5 = load i64, ptr %3, align 8, !tbaa !21
  %6 = icmp ne i64 %5, 0
  br i1 %6, label %7, label %15

7:                                                ; preds = %2
  %8 = load i64, ptr %4, align 8, !tbaa !21
  %9 = load i64, ptr %3, align 8, !tbaa !21
  %10 = udiv i64 -1, %9
  %11 = icmp ugt i64 %8, %10
  br i1 %11, label %12, label %15

12:                                               ; preds = %7
  %13 = load i64, ptr %3, align 8, !tbaa !21
  %14 = load i64, ptr %4, align 8, !tbaa !21
  call void (ptr, ...) @die(ptr noundef @.str.4, i64 noundef %13, i64 noundef %14) #13
  unreachable

15:                                               ; preds = %7, %2
  %16 = load i64, ptr %3, align 8, !tbaa !21
  %17 = load i64, ptr %4, align 8, !tbaa !21
  %18 = mul i64 %16, %17
  ret i64 %18
}

; Function Attrs: nounwind uwtable
define internal i32 @fd_read_lines(i32 noundef %0, ptr noundef %1) #0 {
  %3 = alloca i32, align 4
  %4 = alloca ptr, align 8
  %5 = alloca i64, align 8
  %6 = alloca ptr, align 8
  %7 = alloca i32, align 4
  store i32 %0, ptr %3, align 4, !tbaa !15
  store ptr %1, ptr %4, align 8, !tbaa !53
  call void @llvm.lifetime.start.p0(i64 8, ptr %5) #10
  %8 = load i32, ptr %3, align 4, !tbaa !15
  %9 = call i64 @lseek64(i32 noundef %8, i64 noundef 0, i32 noundef 2) #10
  store i64 %9, ptr %5, align 8, !tbaa !21
  call void @llvm.lifetime.start.p0(i64 8, ptr %6) #10
  store ptr null, ptr %6, align 8, !tbaa !9
  call void @llvm.lifetime.start.p0(i64 4, ptr %7) #10
  store i32 0, ptr %7, align 4, !tbaa !15
  %10 = load i64, ptr %5, align 8, !tbaa !21
  %11 = icmp slt i64 %10, 0
  br i1 %11, label %12, label %13

12:                                               ; preds = %2
  store i32 -2, ptr %7, align 4, !tbaa !15
  br label %50

13:                                               ; preds = %2
  %14 = load i32, ptr %3, align 4, !tbaa !15
  %15 = call i64 @lseek64(i32 noundef %14, i64 noundef 0, i32 noundef 0) #10
  %16 = trunc i64 %15 to i32
  store i32 %16, ptr %7, align 4, !tbaa !15
  %17 = load i32, ptr %7, align 4, !tbaa !15
  %18 = icmp slt i32 %17, 0
  br i1 %18, label %19, label %20

19:                                               ; preds = %13
  store i32 -2, ptr %7, align 4, !tbaa !15
  br label %50

20:                                               ; preds = %13
  %21 = load i64, ptr %5, align 8, !tbaa !21
  %22 = add nsw i64 %21, 1
  %23 = call i64 @st_mult(i64 noundef 1, i64 noundef %22)
  %24 = call ptr @reftable_malloc(i64 noundef %23)
  store ptr %24, ptr %6, align 8, !tbaa !9
  %25 = load ptr, ptr %6, align 8, !tbaa !9
  %26 = icmp ne ptr %25, null
  br i1 %26, label %28, label %27

27:                                               ; preds = %20
  store i32 -13, ptr %7, align 4, !tbaa !15
  br label %50

28:                                               ; preds = %20
  %29 = load i32, ptr %3, align 4, !tbaa !15
  %30 = load ptr, ptr %6, align 8, !tbaa !9
  %31 = load i64, ptr %5, align 8, !tbaa !21
  %32 = call i64 @read_in_full(i32 noundef %29, ptr noundef %30, i64 noundef %31)
  %33 = load i64, ptr %5, align 8, !tbaa !21
  %34 = icmp ne i64 %32, %33
  br i1 %34, label %35, label %36

35:                                               ; preds = %28
  store i32 -2, ptr %7, align 4, !tbaa !15
  br label %50

36:                                               ; preds = %28
  %37 = load ptr, ptr %6, align 8, !tbaa !9
  %38 = load i64, ptr %5, align 8, !tbaa !21
  %39 = getelementptr inbounds i8, ptr %37, i64 %38
  store i8 0, ptr %39, align 1, !tbaa !18
  %40 = load ptr, ptr %6, align 8, !tbaa !9
  %41 = load i64, ptr %5, align 8, !tbaa !21
  %42 = trunc i64 %41 to i32
  %43 = call ptr @parse_names(ptr noundef %40, i32 noundef %42)
  %44 = load ptr, ptr %4, align 8, !tbaa !53
  store ptr %43, ptr %44, align 8, !tbaa !35
  %45 = load ptr, ptr %4, align 8, !tbaa !53
  %46 = load ptr, ptr %45, align 8, !tbaa !35
  %47 = icmp ne ptr %46, null
  br i1 %47, label %49, label %48

48:                                               ; preds = %36
  store i32 -13, ptr %7, align 4, !tbaa !15
  br label %50

49:                                               ; preds = %36
  br label %50

50:                                               ; preds = %49, %48, %35, %27, %19, %12
  %51 = load ptr, ptr %6, align 8, !tbaa !9
  call void @reftable_free(ptr noundef %51)
  %52 = load i32, ptr %7, align 4, !tbaa !15
  call void @llvm.lifetime.end.p0(i64 4, ptr %7) #10
  call void @llvm.lifetime.end.p0(i64 8, ptr %6) #10
  call void @llvm.lifetime.end.p0(i64 8, ptr %5) #10
  ret i32 %52
}