; Function Attrs: nounwind uwtable
define internal fastcc range(i32 -13, -2147483648) i32 @fd_read_lines(i32 noundef range(i32 0, -2147483648) %0, ptr noundef writeonly captures(none) %1) unnamed_addr #0 {
  %3 = tail call i64 @lseek64(i32 noundef %0, i64 noundef 0, i32 noundef 2) #16
  %4 = icmp slt i64 %3, 0
  br i1 %4, label %17, label %5

5:                                                ; preds = %2
  %6 = tail call i64 @lseek64(i32 noundef %0, i64 noundef 0, i32 noundef 0) #16
  %7 = trunc i64 %6 to i32
  %8 = icmp slt i32 %7, 0
  br i1 %8, label %17, label %st_mult.exit

st_mult.exit:                                     ; preds = %5
  %9 = add nuw nsw i64 %3, 1
  %10 = tail call ptr @reftable_malloc(i64 noundef %9) #16
  %.not = icmp eq ptr %10, null
  br i1 %.not, label %17, label %11

11:                                               ; preds = %st_mult.exit
  %12 = tail call i64 @read_in_full(i32 noundef %0, ptr noundef nonnull %10, i64 noundef %3) #16
  %.not21 = icmp eq i64 %12, %3
  br i1 %.not21, label %13, label %17

13:                                               ; preds = %11
  %14 = getelementptr inbounds nuw i8, ptr %10, i64 %3
  store i8 0, ptr %14, align 1, !tbaa !5
  %15 = trunc i64 %3 to i32
  %16 = tail call ptr @parse_names(ptr noundef nonnull %10, i32 noundef %15) #16
  store ptr %16, ptr %1, align 8, !tbaa !30
  %.not22 = icmp eq ptr %16, null
  %spec.select = select i1 %.not22, i32 -13, i32 %7
  br label %17

17:                                               ; preds = %13, %11, %st_mult.exit, %5, %2
  %.017 = phi ptr [ null, %2 ], [ null, %5 ], [ null, %st_mult.exit ], [ %10, %11 ], [ %10, %13 ]
  %.0 = phi i32 [ -2, %2 ], [ -2, %5 ], [ -13, %st_mult.exit ], [ -2, %11 ], [ %spec.select, %13 ]
  tail call void @reftable_free(ptr noundef %.017) #16
  ret i32 %.0
}